; Function Attrs: null_pointer_is_valid sspstrong uwtable
define internal zeroext i1 @dissect_opensafety_pn_io_heur(ptr noundef %0, ptr noundef %1, ptr noundef %2, ptr readnone captures(none) %3) #0 {
  %.b3.i = load i1, ptr @bDissector_Called_Once_Before, align 1
  br i1 %.b3.i, label %dissect_opensafety_pn_io.exit, label %5

5:                                                ; preds = %4
  store i1 true, ptr @bDissector_Called_Once_Before, align 1
  %6 = tail call fastcc i32 @opensafety_package_dissector(ptr noundef nonnull @.str.519, ptr noundef nonnull @.str.266, i1 noundef zeroext false, i1 noundef zeroext false, i8 noundef zeroext 0, ptr noundef %0, ptr noundef %1, ptr noundef %2, i8 noundef zeroext 0)
  store i1 false, ptr @bDissector_Called_Once_Before, align 1
  %7 = icmp ne i32 %6, 0
  br label %dissect_opensafety_pn_io.exit

dissect_opensafety_pn_io.exit:                    ; preds = %4, %5
  %.0.i = phi i1 [ %7, %5 ], [ false, %4 ]
  ret i1 %.0.i
}